(i__main__
Question
p0
(dp1
S'yes'
p2
(i__main__
Question
p3
(dp4
g2
NsS'what_to_ask'
p5
S'Is it a goat?'
p6
sS'no'
p7
Nsbsg5
S'Does it eat aluminum cans?'
p8
sg7
(i__main__
Question
p9
(dp10
g2
Nsg5
S'Is it a cat?'
p11
sg7
Nsbsb.