(i__main__
Question
p0
(dp1
S'yes'
p2
(i__main__
Question
p3
(dp4
g2
NsS'what_to_ask'
p5
S'Is it a goat?'
p6
sS'no'
p7
Nsbsg5
S'Does it eat aluminum cans?'
p8
sg7
(i__main__
Question
p9
(dp10
g2
(i__main__
Question
p11
(dp12
g2
Nsg5
S'Is it a Dog?'
p13
sg7
Nsbsg5
S'Does it bark?'
p14
sg7
(i__main__
Question
p15
(dp16
g2
(i__main__
Question
p17
(dp18
g2
(i__main__
Question
p19
(dp20
g2
Nsg5
S'Is it a pteradactyl?'
p21
sg7
Nsbsg5
S'Is it extinct?'
p22
sg7
(i__main__
Question
p23
(dp24
g2
Nsg5
S'Is it a bird?'
p25
sg7
Nsbsbsg5
S'Does it fly?'
p26
sg7
(i__main__
Question
p27
(dp28
g2
(i__main__
Question
p29
(dp30
g2
Nsg5
S'Is it a horse?'
p31
sg7
Nsbsg5
S'Can you ride it?'
p32
sg7
(i__main__
Question
p33
(dp34
g2
Nsg5
S'Is it a cat?'
p35
sg7
Nsbsbsbsbsb.